; Function Attrs: mustprogress uwtable
define noundef ptr @_ZN7testing8internal18GetFailureReporterEv() local_unnamed_addr #3 personality ptr @__gxx_personality_v0 {
  %1 = load atomic i8, ptr @_ZGVZN7testing8internal18GetFailureReporterEvE16failure_reporter acquire, align 8
  %2 = icmp eq i8 %1, 0
  br i1 %2, label %3, label %9, !prof !42

3:                                                ; preds = %0
  %4 = tail call i32 @__cxa_guard_acquire(ptr nonnull @_ZGVZN7testing8internal18GetFailureReporterEvE16failure_reporter) #33
  %.not = icmp eq i32 %4, 0
  br i1 %.not, label %9, label %5

5:                                                ; preds = %3
  %6 = invoke noalias noundef nonnull dereferenceable(8) ptr @_Znwm(i64 noundef 8) #35
          to label %7 unwind label %11

7:                                                ; preds = %5
  store ptr getelementptr inbounds nuw inrange(-16, 24) (i8, ptr @_ZTVN7testing8internal25GoogleTestFailureReporterE, i64 16), ptr %6, align 8, !tbaa !26
  store ptr %6, ptr @_ZZN7testing8internal18GetFailureReporterEvE16failure_reporter, align 8, !tbaa !43
  %8 = tail call ptr @llvm.invariant.start.p0(i64 8, ptr nonnull @_ZZN7testing8internal18GetFailureReporterEvE16failure_reporter)
  tail call void @__cxa_guard_release(ptr nonnull @_ZGVZN7testing8internal18GetFailureReporterEvE16failure_reporter) #33
  br label %9

9:                                                ; preds = %7, %3, %0
  %10 = load ptr, ptr @_ZZN7testing8internal18GetFailureReporterEvE16failure_reporter, align 8, !tbaa !43
  ret ptr %10

11:                                               ; preds = %5
  %12 = landingpad { ptr, i32 }
          cleanup
  tail call void @__cxa_guard_abort(ptr nonnull @_ZGVZN7testing8internal18GetFailureReporterEvE16failure_reporter) #33
  resume { ptr, i32 } %12
}